target datalayout = "e-m:e-p270:32:32-p271:32:32-p272:64:64-i64:64-i128:128-f80:128-n8:16:32:64-S128"
target triple = "x86_64-pc-linux-gnu"

@.str.3 = private unnamed_addr constant [24 x i8] c"test_print_error_format\00", align 1
@.str.7 = private unnamed_addr constant [26 x i8] c"../openssl/test/errtest.c\00", align 1
@.str.17 = private unnamed_addr constant [2 x i8] c"0\00", align 1
@.str.25 = private unnamed_addr constant [28 x i8] c":error:%08lX:%s:%s:%s:%s:%d\00", align 1
@.str.26 = private unnamed_addr constant [11 x i8] c"reasoncode\00", align 1
@.str.27 = private unnamed_addr constant [7 x i8] c"syserr\00", align 1
@.str.28 = private unnamed_addr constant [15 x i8] c"system library\00", align 1
@.str.29 = private unnamed_addr constant [27 x i8] c"bio = BIO_new(BIO_s_mem())\00", align 1
@.str.30 = private unnamed_addr constant [34 x i8] c"len = BIO_get_mem_data(bio, &out)\00", align 1
@.str.31 = private unnamed_addr constant [11 x i8] c"IS_HEX(*p)\00", align 1
@.str.32 = private unnamed_addr constant [8 x i8] c"*p != 0\00", align 1
@.str.33 = private unnamed_addr constant [9 x i8] c"expected\00", align 1
@.str.34 = private unnamed_addr constant [2 x i8] c"p\00", align 1

; Function Attrs: inlinehint nounwind uwtable
define internal i32 @ERR_GET_REASON(i64 noundef %0) #4 {
  %2 = alloca i32, align 4
  %3 = alloca i64, align 8
  store i64 %0, ptr %3, align 8, !tbaa !11
  %4 = load i64, ptr %3, align 8, !tbaa !11
  %5 = and i64 %4, 2147483648
  %6 = icmp ne i64 %5, 0
  br i1 %6, label %7, label %11

7:                                                ; preds = %1
  %8 = load i64, ptr %3, align 8, !tbaa !11
  %9 = and i64 %8, 2147483647
  %10 = trunc i64 %9 to i32
  store i32 %10, ptr %2, align 4
  br label %15

11:                                               ; preds = %1
  %12 = load i64, ptr %3, align 8, !tbaa !11
  %13 = and i64 %12, 8388607
  %14 = trunc i64 %13 to i32
  store i32 %14, ptr %2, align 4
  br label %15

15:                                               ; preds = %11, %7
  %16 = load i32, ptr %2, align 4
  ret i32 %16
}

; Function Attrs: nounwind uwtable
define internal i32 @test_print_error_format() #0 {
  %1 = alloca ptr, align 8
  %2 = alloca ptr, align 8
  %3 = alloca ptr, align 8
  %4 = alloca ptr, align 8
  %5 = alloca i32, align 4
  %6 = alloca ptr, align 8
  %7 = alloca [512 x i8], align 16
  %8 = alloca ptr, align 8
  %9 = alloca ptr, align 8
  %10 = alloca i32, align 4
  %11 = alloca i32, align 4
  %12 = alloca ptr, align 8
  %13 = alloca i32, align 4
  %14 = alloca i64, align 8
  %15 = alloca i64, align 8
  call void @llvm.lifetime.start.p0(i64 8, ptr %1) #8
  call void @llvm.lifetime.start.p0(i64 8, ptr %2) #8
  store ptr @.str.3, ptr %2, align 8, !tbaa !8
  call void @llvm.lifetime.start.p0(i64 8, ptr %3) #8
  call void @llvm.lifetime.start.p0(i64 8, ptr %4) #8
  store ptr @.str.7, ptr %4, align 8, !tbaa !8
  call void @llvm.lifetime.start.p0(i64 4, ptr %5) #8
  store i32 37, ptr %5, align 4, !tbaa !4
  call void @llvm.lifetime.start.p0(i64 8, ptr %6) #8
  store ptr @.str.25, ptr %6, align 8, !tbaa !8
  call void @llvm.lifetime.start.p0(i64 512, ptr %7) #8
  call void @llvm.lifetime.start.p0(i64 8, ptr %8) #8
  store ptr null, ptr %8, align 8, !tbaa !8
  call void @llvm.lifetime.start.p0(i64 8, ptr %9) #8
  store ptr null, ptr %9, align 8, !tbaa !8
  call void @llvm.lifetime.start.p0(i64 4, ptr %10) #8
  store i32 0, ptr %10, align 4, !tbaa !4
  call void @llvm.lifetime.start.p0(i64 4, ptr %11) #8
  call void @llvm.lifetime.start.p0(i64 8, ptr %12) #8
  store ptr null, ptr %12, align 8, !tbaa !13
  call void @llvm.lifetime.start.p0(i64 4, ptr %13) #8
  store i32 1, ptr %13, align 4, !tbaa !4
  call void @llvm.lifetime.start.p0(i64 8, ptr %14) #8
  call void @llvm.lifetime.start.p0(i64 8, ptr %15) #8
  %16 = call i32 @ERR_set_mark()
  call void @ERR_new()
  %17 = load ptr, ptr %4, align 8, !tbaa !8
  call void @ERR_set_debug(ptr noundef %17, i32 noundef 37, ptr noundef @.str.3)
  call void (i32, i32, ptr, ...) @ERR_set_error(i32 noundef 2, i32 noundef 1, ptr noundef null)
  %18 = call i64 @ERR_peek_error()
  store i64 %18, ptr %14, align 8, !tbaa !11
  %19 = load i64, ptr %14, align 8, !tbaa !11
  %20 = call i32 @ERR_GET_REASON(i64 noundef %19)
  %21 = sext i32 %20 to i64
  store i64 %21, ptr %15, align 8, !tbaa !11
  %22 = load i64, ptr %15, align 8, !tbaa !11
  %23 = trunc i64 %22 to i32
  %24 = call i32 @test_int_eq(ptr noundef @.str.7, i32 noundef 72, ptr noundef @.str.26, ptr noundef @.str.27, i32 noundef %23, i32 noundef 1)
  %25 = icmp ne i32 %24, 0
  br i1 %25, label %28, label %26

26:                                               ; preds = %0
  %27 = call i32 @ERR_pop_to_mark()
  br label %120

28:                                               ; preds = %0
  store ptr @.str.28, ptr %1, align 8, !tbaa !8
  %29 = call ptr @strerror(i32 noundef 1) #8
  store ptr %29, ptr %3, align 8, !tbaa !8
  %30 = getelementptr inbounds [512 x i8], ptr %7, i64 0, i64 0
  %31 = load ptr, ptr %6, align 8, !tbaa !8
  %32 = load i64, ptr %14, align 8, !tbaa !11
  %33 = load ptr, ptr %1, align 8, !tbaa !8
  %34 = load ptr, ptr %2, align 8, !tbaa !8
  %35 = load ptr, ptr %3, align 8, !tbaa !8
  %36 = load ptr, ptr %4, align 8, !tbaa !8
  %37 = call i32 (ptr, i64, ptr, ...) @BIO_snprintf(ptr noundef %30, i64 noundef 512, ptr noundef %31, i64 noundef %32, ptr noundef %33, ptr noundef %34, ptr noundef %35, ptr noundef %36, i32 noundef 37)
  %38 = call ptr @BIO_s_mem()
  %39 = call ptr @BIO_new(ptr noundef %38)
  store ptr %39, ptr %12, align 8, !tbaa !13
  %40 = call i32 @test_ptr(ptr noundef @.str.7, i32 noundef 93, ptr noundef @.str.29, ptr noundef %39)
  %41 = icmp ne i32 %40, 0
  br i1 %41, label %43, label %42

42:                                               ; preds = %28
  br label %120

43:                                               ; preds = %28
  %44 = load ptr, ptr %12, align 8, !tbaa !13
  call void @ERR_print_errors(ptr noundef %44)
  %45 = load ptr, ptr %12, align 8, !tbaa !13
  %46 = call i64 @BIO_ctrl(ptr noundef %45, i32 noundef 3, i64 noundef 0, ptr noundef %8)
  %47 = trunc i64 %46 to i32
  store i32 %47, ptr %11, align 4, !tbaa !4
  %48 = call i32 @test_int_gt(ptr noundef @.str.7, i32 noundef 98, ptr noundef @.str.30, ptr noundef @.str.17, i32 noundef %47, i32 noundef 0)
  %49 = icmp ne i32 %48, 0
  br i1 %49, label %51, label %50

50:                                               ; preds = %43
  br label %120

51:                                               ; preds = %43
  %52 = load ptr, ptr %8, align 8, !tbaa !8
  store ptr %52, ptr %9, align 8, !tbaa !8
  br label %53

53:                                               ; preds = %96, %51
  %54 = load ptr, ptr %9, align 8, !tbaa !8
  %55 = load i8, ptr %54, align 1, !tbaa !15
  %56 = sext i8 %55 to i32
  %57 = icmp ne i32 %56, 58
  br i1 %57, label %58, label %63

58:                                               ; preds = %53
  %59 = load ptr, ptr %9, align 8, !tbaa !8
  %60 = load i8, ptr %59, align 1, !tbaa !15
  %61 = sext i8 %60 to i32
  %62 = icmp ne i32 %61, 0
  br label %63

63:                                               ; preds = %58, %53
  %64 = phi i1 [ false, %53 ], [ %62, %58 ]
  br i1 %64, label %65, label %99

65:                                               ; preds = %63
  %66 = load ptr, ptr %9, align 8, !tbaa !8
  %67 = load i8, ptr %66, align 1, !tbaa !15
  %68 = sext i8 %67 to i32
  %69 = icmp sge i32 %68, 48
  br i1 %69, label %70, label %75

70:                                               ; preds = %65
  %71 = load ptr, ptr %9, align 8, !tbaa !8
  %72 = load i8, ptr %71, align 1, !tbaa !15
  %73 = sext i8 %72 to i32
  %74 = icmp sle i32 %73, 57
  br i1 %74, label %87, label %75

75:                                               ; preds = %70, %65
  %76 = load ptr, ptr %9, align 8, !tbaa !8
  %77 = load i8, ptr %76, align 1, !tbaa !15
  %78 = sext i8 %77 to i32
  %79 = icmp sge i32 %78, 65
  br i1 %79, label %80, label %85

80:                                               ; preds = %75
  %81 = load ptr, ptr %9, align 8, !tbaa !8
  %82 = load i8, ptr %81, align 1, !tbaa !15
  %83 = sext i8 %82 to i32
  %84 = icmp sle i32 %83, 70
  br label %85

85:                                               ; preds = %80, %75
  %86 = phi i1 [ false, %75 ], [ %84, %80 ]
  br label %87

87:                                               ; preds = %85, %70
  %88 = phi i1 [ true, %70 ], [ %86, %85 ]
  %89 = zext i1 %88 to i32
  %90 = icmp ne i32 %89, 0
  %91 = zext i1 %90 to i32
  %92 = call i32 @test_true(ptr noundef @.str.7, i32 noundef 102, ptr noundef @.str.31, i32 noundef %91)
  %93 = icmp ne i32 %92, 0
  br i1 %93, label %95, label %94

94:                                               ; preds = %87
  br label %120

95:                                               ; preds = %87
  br label %96

96:                                               ; preds = %95
  %97 = load ptr, ptr %9, align 8, !tbaa !8
  %98 = getelementptr inbounds nuw i8, ptr %97, i32 1
  store ptr %98, ptr %9, align 8, !tbaa !8
  br label %53, !llvm.loop !16

99:                                               ; preds = %63
  %100 = load ptr, ptr %9, align 8, !tbaa !8
  %101 = load i8, ptr %100, align 1, !tbaa !15
  %102 = sext i8 %101 to i32
  %103 = icmp ne i32 %102, 0
  %104 = zext i1 %103 to i32
  %105 = icmp ne i32 %104, 0
  %106 = zext i1 %105 to i32
  %107 = call i32 @test_true(ptr noundef @.str.7, i32 noundef 105, ptr noundef @.str.32, i32 noundef %106)
  %108 = icmp ne i32 %107, 0
  br i1 %108, label %109, label %118

109:                                              ; preds = %99
  %110 = getelementptr inbounds [512 x i8], ptr %7, i64 0, i64 0
  %111 = getelementptr inbounds [512 x i8], ptr %7, i64 0, i64 0
  %112 = call i64 @strlen(ptr noundef %111) #9
  %113 = load ptr, ptr %9, align 8, !tbaa !8
  %114 = getelementptr inbounds [512 x i8], ptr %7, i64 0, i64 0
  %115 = call i64 @strlen(ptr noundef %114) #9
  %116 = call i32 @test_strn_eq(ptr noundef @.str.7, i32 noundef 106, ptr noundef @.str.33, ptr noundef @.str.34, ptr noundef %110, i64 noundef %112, ptr noundef %113, i64 noundef %115)
  %117 = icmp ne i32 %116, 0
  br i1 %117, label %119, label %118

118:                                              ; preds = %109, %99
  br label %120

119:                                              ; preds = %109
  store i32 1, ptr %10, align 4, !tbaa !4
  br label %120

120:                                              ; preds = %119, %118, %94, %50, %42, %26
  %121 = load ptr, ptr %12, align 8, !tbaa !13
  %122 = call i32 @BIO_free(ptr noundef %121)
  %123 = load i32, ptr %10, align 4, !tbaa !4
  call void @llvm.lifetime.end.p0(i64 8, ptr %15) #8
  call void @llvm.lifetime.end.p0(i64 8, ptr %14) #8
  call void @llvm.lifetime.end.p0(i64 4, ptr %13) #8
  call void @llvm.lifetime.end.p0(i64 8, ptr %12) #8
  call void @llvm.lifetime.end.p0(i64 4, ptr %11) #8
  call void @llvm.lifetime.end.p0(i64 4, ptr %10) #8
  call void @llvm.lifetime.end.p0(i64 8, ptr %9) #8
  call void @llvm.lifetime.end.p0(i64 8, ptr %8) #8
  call void @llvm.lifetime.end.p0(i64 512, ptr %7) #8
  call void @llvm.lifetime.end.p0(i64 8, ptr %6) #8
  call void @llvm.lifetime.end.p0(i64 4, ptr %5) #8
  call void @llvm.lifetime.end.p0(i64 8, ptr %4) #8
  call void @llvm.lifetime.end.p0(i64 8, ptr %3) #8
  call void @llvm.lifetime.end.p0(i64 8, ptr %2) #8
  call void @llvm.lifetime.end.p0(i64 8, ptr %1) #8
  ret i32 %123
}