; Function Attrs: nounwind uwtable
define internal range(i32 0, 2) i32 @test_print_error_format() #0 {
  %1 = alloca [512 x i8], align 16
  %2 = alloca ptr, align 8
  call void @llvm.lifetime.start.p0(i64 512, ptr nonnull %1) #6
  call void @llvm.lifetime.start.p0(i64 8, ptr nonnull %2) #6
  store ptr null, ptr %2, align 8, !tbaa !8
  %3 = tail call i32 @ERR_set_mark() #6
  tail call void @ERR_new() #6
  tail call void @ERR_set_debug(ptr noundef nonnull @.str.7, i32 noundef 37, ptr noundef nonnull @.str.3) #6
  tail call void (i32, i32, ptr, ...) @ERR_set_error(i32 noundef 2, i32 noundef 1, ptr noundef null) #6
  %4 = tail call i64 @ERR_peek_error() #6
  %5 = and i64 %4, 2147483648
  %.not.i = icmp eq i64 %5, 0
  %6 = trunc i64 %4 to i32
  %.0.v.i = select i1 %.not.i, i32 8388607, i32 2147483647
  %.0.i = and i32 %.0.v.i, %6
  %7 = tail call i32 @test_int_eq(ptr noundef nonnull @.str.7, i32 noundef 72, ptr noundef nonnull @.str.26, ptr noundef nonnull @.str.27, i32 noundef %.0.i, i32 noundef 1) #6
  %.not = icmp eq i32 %7, 0
  br i1 %.not, label %8, label %10

8:                                                ; preds = %0
  %9 = tail call i32 @ERR_pop_to_mark() #6
  br label %.loopexit

10:                                               ; preds = %0
  %11 = tail call ptr @strerror(i32 noundef 1) #6
  %12 = call i32 (ptr, i64, ptr, ...) @BIO_snprintf(ptr noundef nonnull %1, i64 noundef 512, ptr noundef nonnull @.str.25, i64 noundef %4, ptr noundef nonnull @.str.28, ptr noundef nonnull @.str.3, ptr noundef %11, ptr noundef nonnull @.str.7, i32 noundef 37) #6
  %13 = call ptr @BIO_s_mem() #6
  %14 = call ptr @BIO_new(ptr noundef %13) #6
  %15 = call i32 @test_ptr(ptr noundef nonnull @.str.7, i32 noundef 93, ptr noundef nonnull @.str.29, ptr noundef %14) #6
  %.not25 = icmp eq i32 %15, 0
  br i1 %.not25, label %.loopexit, label %16

16:                                               ; preds = %10
  call void @ERR_print_errors(ptr noundef %14) #6
  %17 = call i64 @BIO_ctrl(ptr noundef %14, i32 noundef 3, i64 noundef 0, ptr noundef nonnull %2) #6
  %18 = trunc i64 %17 to i32
  %19 = call i32 @test_int_gt(ptr noundef nonnull @.str.7, i32 noundef 98, ptr noundef nonnull @.str.30, ptr noundef nonnull @.str.17, i32 noundef %18, i32 noundef 0) #6
  %.not26 = icmp eq i32 %19, 0
  br i1 %.not26, label %.loopexit, label %20

20:                                               ; preds = %16
  %21 = load ptr, ptr %2, align 8, !tbaa !8
  br label %22

22:                                               ; preds = %34, %20
  %.0 = phi ptr [ %21, %20 ], [ %35, %34 ]
  %23 = load i8, ptr %.0, align 1, !tbaa !11
  switch i8 %23, label %24 [
    i8 58, label %.critedge
    i8 0, label %.critedge
  ]

24:                                               ; preds = %22
  %25 = add i8 %23, -48
  %or.cond = icmp ult i8 %25, 10
  br i1 %or.cond, label %31, label %26

26:                                               ; preds = %24
  %27 = icmp sgt i8 %23, 64
  br i1 %27, label %28, label %31

28:                                               ; preds = %26
  %29 = icmp samesign ult i8 %23, 71
  %30 = zext i1 %29 to i32
  br label %31

31:                                               ; preds = %24, %26, %28
  %32 = phi i32 [ 0, %26 ], [ %30, %28 ], [ 1, %24 ]
  %33 = call i32 @test_true(ptr noundef nonnull @.str.7, i32 noundef 102, ptr noundef nonnull @.str.31, i32 noundef %32) #6
  %.not31 = icmp eq i32 %33, 0
  br i1 %.not31, label %.loopexit, label %34

34:                                               ; preds = %31
  %35 = getelementptr inbounds nuw i8, ptr %.0, i64 1
  br label %22, !llvm.loop !12

.critedge:                                        ; preds = %22, %22
  %36 = icmp ne i8 %23, 0
  %37 = zext i1 %36 to i32
  %38 = call i32 @test_true(ptr noundef nonnull @.str.7, i32 noundef 105, ptr noundef nonnull @.str.32, i32 noundef %37) #6
  %.not29 = icmp eq i32 %38, 0
  br i1 %.not29, label %.loopexit, label %39

39:                                               ; preds = %.critedge
  %40 = call i64 @strlen(ptr noundef nonnull dereferenceable(1) %1) #8
  %41 = call i32 @test_strn_eq(ptr noundef nonnull @.str.7, i32 noundef 106, ptr noundef nonnull @.str.33, ptr noundef nonnull @.str.34, ptr noundef nonnull %1, i64 noundef %40, ptr noundef nonnull %.0, i64 noundef %40) #6
  %.not30 = icmp ne i32 %41, 0
  %spec.select = zext i1 %.not30 to i32
  br label %.loopexit

.loopexit:                                        ; preds = %31, %39, %.critedge, %16, %10, %8
  %.022 = phi ptr [ %14, %.critedge ], [ %14, %16 ], [ %14, %10 ], [ null, %8 ], [ %14, %39 ], [ %14, %31 ]
  %.021 = phi i32 [ 0, %.critedge ], [ 0, %16 ], [ 0, %10 ], [ 0, %8 ], [ %spec.select, %39 ], [ 0, %31 ]
  %42 = call i32 @BIO_free(ptr noundef %.022) #6
  call void @llvm.lifetime.end.p0(i64 8, ptr nonnull %2) #6
  call void @llvm.lifetime.end.p0(i64 512, ptr nonnull %1) #6
  ret i32 %.021
}